target datalayout = "e-m:e-p270:32:32-p271:32:32-p272:64:64-i64:64-i128:128-f80:128-n8:16:32:64-S128"
target triple = "x86_64-pc-linux-gnu"

%struct.AVCodecContext = type { ptr, i32, i32, ptr, i32, i32, ptr, ptr, ptr, i64, i32, i32, ptr, i32, %struct.AVRational, %struct.AVRational, %struct.AVRational, i32, i32, i32, i32, i32, %struct.AVRational, i32, i32, i32, i32, i32, i32, i32, i32, i32, i32, i32, ptr, ptr, i32, float, float, float, float, float, float, float, float, float, i32, i32, i32, i32, i32, i32, i32, i32, i32, i32, i32, i32, ptr, ptr, ptr, i32, i32, i32, i32, i32, i32, i32, i32, i32, i32, %struct.AVChannelLayout, i32, i32, i32, i32, i32, i32, i32, i32, ptr, i32, i32, i32, float, float, i32, i32, i32, i32, i32, ptr, i64, i64, float, float, i32, i32, ptr, ptr, i32, i32, i32, i32, i32, ptr, ptr, ptr, ptr, i32, i32, [8 x i64], i32, i32, i32, i32, i32, i32, i32, ptr, ptr, i32, i32, i32, i32, i32, i32, i32, i32, i32, i32, ptr, ptr, i32, i32, ptr, ptr, ptr, ptr, i32, i32, i64, i32, i32, i64, ptr, i64, ptr, i32, ptr, i32 }
%struct.AVRational = type { i32, i32 }
%struct.AVChannelLayout = type { i32, i32, %union.anon.0, ptr }
%union.anon.0 = type { i64 }
%struct.PCMDecode = type { i32 }
%struct.anon = type { i32, i8, i8, i8 }

; Function Attrs: cold nounwind optsize uwtable
define internal i32 @pcm_decode_init(ptr noundef %0) #0 {
  %2 = alloca ptr, align 8
  %3 = alloca ptr, align 8
  %4 = alloca i32, align 4
  %5 = alloca i32, align 4
  store ptr %0, ptr %2, align 8, !tbaa !4
  call void @llvm.lifetime.start.p0(i64 8, ptr %3) #8
  %6 = load ptr, ptr %2, align 8, !tbaa !4
  %7 = getelementptr inbounds nuw %struct.AVCodecContext, ptr %6, i32 0, i32 6
  %8 = load ptr, ptr %7, align 8, !tbaa !9
  store ptr %8, ptr %3, align 8, !tbaa !52
  call void @llvm.lifetime.start.p0(i64 4, ptr %4) #8
  store i32 0, ptr %4, align 4, !tbaa !32
  br label %9

9:                                                ; preds = %56, %1
  %10 = load i32, ptr %4, align 4, !tbaa !32
  %11 = zext i32 %10 to i64
  %12 = icmp ult i64 %11, 28
  br i1 %12, label %14, label %13

13:                                               ; preds = %9
  store i32 2, ptr %5, align 4
  br label %59

14:                                               ; preds = %9
  %15 = load i32, ptr %4, align 4, !tbaa !32
  %16 = zext i32 %15 to i64
  %17 = getelementptr inbounds nuw [28 x %struct.anon], ptr @pcm_decode_init.codec_id_to_samplefmt, i64 0, i64 %16
  %18 = getelementptr inbounds nuw %struct.anon, ptr %17, i32 0, i32 0
  %19 = load i32, ptr %18, align 8, !tbaa !135
  %20 = load ptr, ptr %2, align 8, !tbaa !4
  %21 = getelementptr inbounds nuw %struct.AVCodecContext, ptr %20, i32 0, i32 4
  %22 = load i32, ptr %21, align 8, !tbaa !31
  %23 = icmp eq i32 %19, %22
  br i1 %23, label %24, label %55

24:                                               ; preds = %14
  %25 = load i32, ptr %4, align 4, !tbaa !32
  %26 = zext i32 %25 to i64
  %27 = getelementptr inbounds nuw [28 x %struct.anon], ptr @pcm_decode_init.codec_id_to_samplefmt, i64 0, i64 %26
  %28 = getelementptr inbounds nuw %struct.anon, ptr %27, i32 0, i32 2
  %29 = load i8, ptr %28, align 1, !tbaa !137
  %30 = zext i8 %29 to i32
  %31 = load ptr, ptr %3, align 8, !tbaa !52
  %32 = getelementptr inbounds nuw %struct.PCMDecode, ptr %31, i32 0, i32 0
  store i32 %30, ptr %32, align 4, !tbaa !55
  %33 = load i32, ptr %4, align 4, !tbaa !32
  %34 = zext i32 %33 to i64
  %35 = getelementptr inbounds nuw [28 x %struct.anon], ptr @pcm_decode_init.codec_id_to_samplefmt, i64 0, i64 %34
  %36 = getelementptr inbounds nuw %struct.anon, ptr %35, i32 0, i32 1
  %37 = load i8, ptr %36, align 4, !tbaa !138
  %38 = sext i8 %37 to i32
  %39 = load ptr, ptr %2, align 8, !tbaa !4
  %40 = getelementptr inbounds nuw %struct.AVCodecContext, ptr %39, i32 0, i32 70
  store i32 %38, ptr %40, align 4, !tbaa !39
  %41 = load ptr, ptr %2, align 8, !tbaa !4
  %42 = getelementptr inbounds nuw %struct.AVCodecContext, ptr %41, i32 0, i32 70
  %43 = load i32, ptr %42, align 4, !tbaa !39
  %44 = icmp eq i32 %43, 2
  br i1 %44, label %45, label %54

45:                                               ; preds = %24
  %46 = load i32, ptr %4, align 4, !tbaa !32
  %47 = zext i32 %46 to i64
  %48 = getelementptr inbounds nuw [28 x %struct.anon], ptr @pcm_decode_init.codec_id_to_samplefmt, i64 0, i64 %47
  %49 = getelementptr inbounds nuw %struct.anon, ptr %48, i32 0, i32 3
  %50 = load i8, ptr %49, align 2, !tbaa !139
  %51 = zext i8 %50 to i32
  %52 = load ptr, ptr %2, align 8, !tbaa !4
  %53 = getelementptr inbounds nuw %struct.AVCodecContext, ptr %52, i32 0, i32 115
  store i32 %51, ptr %53, align 4, !tbaa !140
  br label %54

54:                                               ; preds = %45, %24
  store i32 2, ptr %5, align 4
  br label %59

55:                                               ; preds = %14
  br label %56

56:                                               ; preds = %55
  %57 = load i32, ptr %4, align 4, !tbaa !32
  %58 = add i32 %57, 1
  store i32 %58, ptr %4, align 4, !tbaa !32
  br label %9, !llvm.loop !141

59:                                               ; preds = %54, %13
  call void @llvm.lifetime.end.p0(i64 4, ptr %4) #8
  br label %60

60:                                               ; preds = %59
  store i32 1, ptr %5, align 4
  call void @llvm.lifetime.end.p0(i64 8, ptr %3) #8
  ret i32 0
}