; Function Attrs: cold nofree norecurse nosync nounwind optsize memory(write, argmem: readwrite, inaccessiblemem: none) uwtable
define internal noundef i32 @pcm_decode_init(ptr noundef captures(none) %0) #0 {
  %2 = getelementptr inbounds nuw i8, ptr %0, i64 32
  %3 = load ptr, ptr %2, align 8, !tbaa !4
  %4 = getelementptr inbounds nuw i8, ptr %0, i64 24
  %5 = load i32, ptr %4, align 8, !tbaa !27
  br label %7

6:                                                ; preds = %7
  %indvars.iv.next = add nuw nsw i64 %indvars.iv, 1
  %exitcond.not = icmp eq i64 %indvars.iv.next, 28
  br i1 %exitcond.not, label %.loopexit, label %7, !llvm.loop !117

7:                                                ; preds = %1, %6
  %indvars.iv = phi i64 [ 0, %1 ], [ %indvars.iv.next, %6 ]
  %8 = getelementptr inbounds nuw [28 x %struct.anon], ptr @pcm_decode_init.codec_id_to_samplefmt, i64 0, i64 %indvars.iv
  %9 = load i32, ptr %8, align 8, !tbaa !118
  %10 = icmp eq i32 %9, %5
  br i1 %10, label %11, label %6

11:                                               ; preds = %7
  %12 = getelementptr inbounds nuw [28 x %struct.anon], ptr @pcm_decode_init.codec_id_to_samplefmt, i64 0, i64 %indvars.iv
  %13 = getelementptr inbounds nuw i8, ptr %12, i64 5
  %14 = load i8, ptr %13, align 1, !tbaa !120
  %15 = zext i8 %14 to i32
  store i32 %15, ptr %3, align 4, !tbaa !42
  %16 = getelementptr inbounds nuw i8, ptr %12, i64 4
  %17 = load i8, ptr %16, align 4, !tbaa !121
  %18 = sext i8 %17 to i32
  %19 = getelementptr inbounds nuw i8, ptr %0, i64 348
  store i32 %18, ptr %19, align 4, !tbaa !34
  %20 = icmp eq i8 %17, 2
  br i1 %20, label %21, label %.loopexit

21:                                               ; preds = %11
  %22 = getelementptr inbounds nuw i8, ptr %12, i64 6
  %23 = load i8, ptr %22, align 2, !tbaa !122
  %24 = zext i8 %23 to i32
  %25 = getelementptr inbounds nuw i8, ptr %0, i64 652
  store i32 %24, ptr %25, align 4, !tbaa !123
  br label %.loopexit

.loopexit:                                        ; preds = %6, %11, %21
  ret i32 0
}